target datalayout = "e-m:e-p270:32:32-p271:32:32-p272:64:64-i64:64-i128:128-f80:128-n8:16:32:64-S128"
target triple = "x86_64-pc-linux-gnu"

@.str.17 = private unnamed_addr constant [4 x i8] c"all\00", align 1
@.str.51 = private unnamed_addr constant [2 x i8] c"*\00", align 1

; Function Attrs: nounwind uwtable
define dso_local void @pmix_info_show_mca_params(ptr noundef %0, ptr noundef %1) #0 {
  %3 = alloca ptr, align 8
  %4 = alloca ptr, align 8
  %5 = alloca ptr, align 8
  %6 = alloca i32, align 4
  %7 = alloca i32, align 4
  store ptr %0, ptr %3, align 8, !tbaa !24
  store ptr %1, ptr %4, align 8, !tbaa !24
  call void @llvm.lifetime.start.p0(i64 8, ptr %5) #13
  call void @llvm.lifetime.start.p0(i64 4, ptr %6) #13
  %8 = load ptr, ptr %4, align 8, !tbaa !24
  %9 = call i32 @strcmp(ptr noundef %8, ptr noundef @.str.17) #16
  %10 = icmp eq i32 0, %9
  br i1 %10, label %11, label %21

11:                                               ; preds = %2
  %12 = load ptr, ptr %3, align 8, !tbaa !24
  %13 = call i32 @pmix_mca_base_var_group_find(ptr noundef @.str.51, ptr noundef %12, ptr noundef null)
  store i32 %13, ptr %6, align 4, !tbaa !18
  %14 = load i32, ptr %6, align 4, !tbaa !18
  %15 = icmp sgt i32 0, %14
  br i1 %15, label %16, label %17

16:                                               ; preds = %11
  store i32 1, ptr %7, align 4
  br label %33

17:                                               ; preds = %11
  %18 = load i32, ptr %6, align 4, !tbaa !18
  %19 = call i32 @pmix_mca_base_var_group_get(i32 noundef %18, ptr noundef %5)
  %20 = load ptr, ptr %5, align 8, !tbaa !99
  call void @pmix_info_show_mca_group_params(ptr noundef %20)
  br label %32

21:                                               ; preds = %2
  %22 = load ptr, ptr %3, align 8, !tbaa !24
  %23 = load ptr, ptr %4, align 8, !tbaa !24
  %24 = call i32 @pmix_mca_base_var_group_find(ptr noundef @.str.51, ptr noundef %22, ptr noundef %23)
  store i32 %24, ptr %6, align 4, !tbaa !18
  %25 = load i32, ptr %6, align 4, !tbaa !18
  %26 = icmp sgt i32 0, %25
  br i1 %26, label %27, label %28

27:                                               ; preds = %21
  store i32 1, ptr %7, align 4
  br label %33

28:                                               ; preds = %21
  %29 = load i32, ptr %6, align 4, !tbaa !18
  %30 = call i32 @pmix_mca_base_var_group_get(i32 noundef %29, ptr noundef %5)
  %31 = load ptr, ptr %5, align 8, !tbaa !99
  call void @pmix_info_show_mca_group_params(ptr noundef %31)
  br label %32

32:                                               ; preds = %28, %17
  store i32 0, ptr %7, align 4
  br label %33

33:                                               ; preds = %32, %27, %16
  call void @llvm.lifetime.end.p0(i64 4, ptr %6) #13
  call void @llvm.lifetime.end.p0(i64 8, ptr %5) #13
  %34 = load i32, ptr %7, align 4
  switch i32 %34, label %36 [
    i32 0, label %35
    i32 1, label %35
  ]

35:                                               ; preds = %33, %33
  ret void

36:                                               ; preds = %33
  unreachable
}