; Function Attrs: nounwind uwtable
define dso_local void @pmix_info_show_mca_params(ptr noundef %0, ptr noundef %1) local_unnamed_addr #2 {
  %3 = alloca ptr, align 8
  call void @llvm.lifetime.start.p0(i64 8, ptr nonnull %3) #17
  %4 = tail call i32 @strcmp(ptr noundef nonnull dereferenceable(1) %1, ptr noundef nonnull dereferenceable(4) @.str.17) #23
  %5 = icmp eq i32 %4, 0
  br i1 %5, label %6, label %9

6:                                                ; preds = %2
  %7 = tail call i32 @pmix_mca_base_var_group_find(ptr noundef nonnull @.str.51, ptr noundef %0, ptr noundef null) #17
  %8 = icmp slt i32 %7, 0
  br i1 %8, label %14, label %.sink.split

9:                                                ; preds = %2
  %10 = tail call i32 @pmix_mca_base_var_group_find(ptr noundef nonnull @.str.51, ptr noundef %0, ptr noundef nonnull %1) #17
  %11 = icmp slt i32 %10, 0
  br i1 %11, label %14, label %.sink.split

.sink.split:                                      ; preds = %9, %6
  %.sink = phi i32 [ %7, %6 ], [ %10, %9 ]
  %12 = call i32 @pmix_mca_base_var_group_get(i32 noundef %.sink, ptr noundef nonnull %3) #17
  %13 = load ptr, ptr %3, align 8, !tbaa !87
  call fastcc void @pmix_info_show_mca_group_params(ptr noundef %13)
  br label %14

14:                                               ; preds = %.sink.split, %9, %6
  call void @llvm.lifetime.end.p0(i64 8, ptr nonnull %3) #17
  ret void
}